target datalayout = "e-m:e-p270:32:32-p271:32:32-p272:64:64-i64:64-i128:128-f80:128-n8:16:32:64-S128"
target triple = "x86_64-pc-linux-gnu"

%struct.AVFilterFormats = type { i32, ptr, i32, ptr }

; Function Attrs: nounwind uwtable
define internal i32 @merge_samplerates_internal(ptr noundef %0, ptr noundef %1, i32 noundef %2) #0 {
  %4 = alloca i32, align 4
  %5 = alloca ptr, align 8
  %6 = alloca ptr, align 8
  %7 = alloca i32, align 4
  %8 = alloca i32, align 4
  %9 = alloca i32, align 4
  %10 = alloca i32, align 4
  %11 = alloca i32, align 4
  %12 = alloca i32, align 4
  %13 = alloca ptr, align 8
  %14 = alloca ptr, align 8
  %15 = alloca i32, align 4
  store ptr %0, ptr %5, align 8, !tbaa !27
  store ptr %1, ptr %6, align 8, !tbaa !27
  store i32 %2, ptr %7, align 4, !tbaa !21
  %16 = load ptr, ptr %5, align 8, !tbaa !27
  %17 = load ptr, ptr %6, align 8, !tbaa !27
  %18 = icmp eq ptr %16, %17
  br i1 %18, label %19, label %20

19:                                               ; preds = %3
  store i32 1, ptr %4, align 4
  br label %186

20:                                               ; preds = %3
  br label %21

21:                                               ; preds = %20
  call void @llvm.lifetime.start.p0(i64 4, ptr %8) #7
  call void @llvm.lifetime.start.p0(i64 4, ptr %9) #7
  call void @llvm.lifetime.start.p0(i64 4, ptr %10) #7
  store i32 0, ptr %10, align 4, !tbaa !21
  call void @llvm.lifetime.start.p0(i64 4, ptr %11) #7
  store i32 0, ptr %11, align 4, !tbaa !21
  %22 = load ptr, ptr %5, align 8, !tbaa !27
  %23 = getelementptr inbounds nuw %struct.AVFilterFormats, ptr %22, i32 0, i32 0
  %24 = load i32, ptr %23, align 8, !tbaa !28
  %25 = icmp ne i32 %24, 0
  br i1 %25, label %26, label %31

26:                                               ; preds = %21
  %27 = load ptr, ptr %6, align 8, !tbaa !27
  %28 = getelementptr inbounds nuw %struct.AVFilterFormats, ptr %27, i32 0, i32 0
  %29 = load i32, ptr %28, align 8, !tbaa !28
  %30 = icmp ne i32 %29, 0
  br i1 %30, label %48, label %31

31:                                               ; preds = %26, %21
  %32 = load i32, ptr %7, align 4, !tbaa !21
  %33 = icmp ne i32 %32, 0
  br i1 %33, label %34, label %35

34:                                               ; preds = %31
  store i32 1, ptr %4, align 4
  store i32 1, ptr %12, align 4
  br label %182

35:                                               ; preds = %31
  %36 = load ptr, ptr %5, align 8, !tbaa !27
  %37 = getelementptr inbounds nuw %struct.AVFilterFormats, ptr %36, i32 0, i32 0
  %38 = load i32, ptr %37, align 8, !tbaa !28
  %39 = icmp ne i32 %38, 0
  br i1 %39, label %47, label %40

40:                                               ; preds = %35
  br label %41

41:                                               ; preds = %40
  call void @llvm.lifetime.start.p0(i64 8, ptr %13) #7
  %42 = load ptr, ptr %6, align 8, !tbaa !27
  store ptr %42, ptr %13, align 8, !tbaa !27
  %43 = load ptr, ptr %5, align 8, !tbaa !27
  store ptr %43, ptr %6, align 8, !tbaa !27
  %44 = load ptr, ptr %13, align 8, !tbaa !27
  store ptr %44, ptr %5, align 8, !tbaa !27
  call void @llvm.lifetime.end.p0(i64 8, ptr %13) #7
  br label %45

45:                                               ; preds = %41
  br label %46

46:                                               ; preds = %45
  br label %47

47:                                               ; preds = %46, %35
  store i32 1, ptr %11, align 4, !tbaa !21
  br label %48

48:                                               ; preds = %47, %26
  %49 = load i32, ptr %11, align 4, !tbaa !21
  %50 = icmp ne i32 %49, 0
  br i1 %50, label %116, label %51

51:                                               ; preds = %48
  store i32 0, ptr %8, align 4, !tbaa !21
  br label %52

52:                                               ; preds = %105, %51
  %53 = load i32, ptr %8, align 4, !tbaa !21
  %54 = load ptr, ptr %5, align 8, !tbaa !27
  %55 = getelementptr inbounds nuw %struct.AVFilterFormats, ptr %54, i32 0, i32 0
  %56 = load i32, ptr %55, align 8, !tbaa !28
  %57 = icmp ult i32 %53, %56
  br i1 %57, label %58, label %108

58:                                               ; preds = %52
  store i32 0, ptr %9, align 4, !tbaa !21
  br label %59

59:                                               ; preds = %101, %58
  %60 = load i32, ptr %9, align 4, !tbaa !21
  %61 = load ptr, ptr %6, align 8, !tbaa !27
  %62 = getelementptr inbounds nuw %struct.AVFilterFormats, ptr %61, i32 0, i32 0
  %63 = load i32, ptr %62, align 8, !tbaa !28
  %64 = icmp ult i32 %60, %63
  br i1 %64, label %65, label %104

65:                                               ; preds = %59
  %66 = load ptr, ptr %5, align 8, !tbaa !27
  %67 = getelementptr inbounds nuw %struct.AVFilterFormats, ptr %66, i32 0, i32 1
  %68 = load ptr, ptr %67, align 8, !tbaa !32
  %69 = load i32, ptr %8, align 4, !tbaa !21
  %70 = sext i32 %69 to i64
  %71 = getelementptr inbounds i32, ptr %68, i64 %70
  %72 = load i32, ptr %71, align 4, !tbaa !21
  %73 = load ptr, ptr %6, align 8, !tbaa !27
  %74 = getelementptr inbounds nuw %struct.AVFilterFormats, ptr %73, i32 0, i32 1
  %75 = load ptr, ptr %74, align 8, !tbaa !32
  %76 = load i32, ptr %9, align 4, !tbaa !21
  %77 = sext i32 %76 to i64
  %78 = getelementptr inbounds i32, ptr %75, i64 %77
  %79 = load i32, ptr %78, align 4, !tbaa !21
  %80 = icmp eq i32 %72, %79
  br i1 %80, label %81, label %100

81:                                               ; preds = %65
  %82 = load i32, ptr %7, align 4, !tbaa !21
  %83 = icmp ne i32 %82, 0
  br i1 %83, label %84, label %85

84:                                               ; preds = %81
  store i32 1, ptr %4, align 4
  store i32 1, ptr %12, align 4
  br label %182

85:                                               ; preds = %81
  %86 = load ptr, ptr %5, align 8, !tbaa !27
  %87 = getelementptr inbounds nuw %struct.AVFilterFormats, ptr %86, i32 0, i32 1
  %88 = load ptr, ptr %87, align 8, !tbaa !32
  %89 = load i32, ptr %8, align 4, !tbaa !21
  %90 = sext i32 %89 to i64
  %91 = getelementptr inbounds i32, ptr %88, i64 %90
  %92 = load i32, ptr %91, align 4, !tbaa !21
  %93 = load ptr, ptr %5, align 8, !tbaa !27
  %94 = getelementptr inbounds nuw %struct.AVFilterFormats, ptr %93, i32 0, i32 1
  %95 = load ptr, ptr %94, align 8, !tbaa !32
  %96 = load i32, ptr %10, align 4, !tbaa !21
  %97 = add nsw i32 %96, 1
  store i32 %97, ptr %10, align 4, !tbaa !21
  %98 = sext i32 %96 to i64
  %99 = getelementptr inbounds i32, ptr %95, i64 %98
  store i32 %92, ptr %99, align 4, !tbaa !21
  br label %104

100:                                              ; preds = %65
  br label %101

101:                                              ; preds = %100
  %102 = load i32, ptr %9, align 4, !tbaa !21
  %103 = add nsw i32 %102, 1
  store i32 %103, ptr %9, align 4, !tbaa !21
  br label %59, !llvm.loop !164

104:                                              ; preds = %85, %59
  br label %105

105:                                              ; preds = %104
  %106 = load i32, ptr %8, align 4, !tbaa !21
  %107 = add nsw i32 %106, 1
  store i32 %107, ptr %8, align 4, !tbaa !21
  br label %52, !llvm.loop !165

108:                                              ; preds = %52
  %109 = load i32, ptr %10, align 4, !tbaa !21
  %110 = icmp ne i32 %109, 0
  br i1 %110, label %112, label %111

111:                                              ; preds = %108
  store i32 0, ptr %4, align 4
  store i32 1, ptr %12, align 4
  br label %182

112:                                              ; preds = %108
  %113 = load i32, ptr %10, align 4, !tbaa !21
  %114 = load ptr, ptr %5, align 8, !tbaa !27
  %115 = getelementptr inbounds nuw %struct.AVFilterFormats, ptr %114, i32 0, i32 0
  store i32 %113, ptr %115, align 8, !tbaa !28
  br label %116

116:                                              ; preds = %112, %48
  br label %117

117:                                              ; preds = %116
  call void @llvm.lifetime.start.p0(i64 8, ptr %14) #7
  call void @llvm.lifetime.start.p0(i64 4, ptr %15) #7
  %118 = load ptr, ptr %5, align 8, !tbaa !27
  %119 = getelementptr inbounds nuw %struct.AVFilterFormats, ptr %118, i32 0, i32 3
  %120 = load ptr, ptr %119, align 8, !tbaa !50
  %121 = load ptr, ptr %5, align 8, !tbaa !27
  %122 = getelementptr inbounds nuw %struct.AVFilterFormats, ptr %121, i32 0, i32 2
  %123 = load i32, ptr %122, align 8, !tbaa !49
  %124 = load ptr, ptr %6, align 8, !tbaa !27
  %125 = getelementptr inbounds nuw %struct.AVFilterFormats, ptr %124, i32 0, i32 2
  %126 = load i32, ptr %125, align 8, !tbaa !49
  %127 = add i32 %123, %126
  %128 = zext i32 %127 to i64
  %129 = call ptr @av_realloc_array(ptr noundef %120, i64 noundef %128, i64 noundef 8)
  store ptr %129, ptr %14, align 8, !tbaa !146
  %130 = icmp ne ptr %129, null
  br i1 %130, label %132, label %131

131:                                              ; preds = %117
  store i32 -12, ptr %4, align 4
  store i32 1, ptr %12, align 4
  br label %177

132:                                              ; preds = %117
  %133 = load ptr, ptr %14, align 8, !tbaa !146
  %134 = load ptr, ptr %5, align 8, !tbaa !27
  %135 = getelementptr inbounds nuw %struct.AVFilterFormats, ptr %134, i32 0, i32 3
  store ptr %133, ptr %135, align 8, !tbaa !50
  store i32 0, ptr %15, align 4, !tbaa !21
  br label %136

136:                                              ; preds = %169, %132
  %137 = load i32, ptr %15, align 4, !tbaa !21
  %138 = load ptr, ptr %6, align 8, !tbaa !27
  %139 = getelementptr inbounds nuw %struct.AVFilterFormats, ptr %138, i32 0, i32 2
  %140 = load i32, ptr %139, align 8, !tbaa !49
  %141 = icmp ult i32 %137, %140
  br i1 %141, label %142, label %172

142:                                              ; preds = %136
  %143 = load ptr, ptr %6, align 8, !tbaa !27
  %144 = getelementptr inbounds nuw %struct.AVFilterFormats, ptr %143, i32 0, i32 3
  %145 = load ptr, ptr %144, align 8, !tbaa !50
  %146 = load i32, ptr %15, align 4, !tbaa !21
  %147 = sext i32 %146 to i64
  %148 = getelementptr inbounds ptr, ptr %145, i64 %147
  %149 = load ptr, ptr %148, align 8, !tbaa !45
  %150 = load ptr, ptr %5, align 8, !tbaa !27
  %151 = getelementptr inbounds nuw %struct.AVFilterFormats, ptr %150, i32 0, i32 3
  %152 = load ptr, ptr %151, align 8, !tbaa !50
  %153 = load ptr, ptr %5, align 8, !tbaa !27
  %154 = getelementptr inbounds nuw %struct.AVFilterFormats, ptr %153, i32 0, i32 2
  %155 = load i32, ptr %154, align 8, !tbaa !49
  %156 = zext i32 %155 to i64
  %157 = getelementptr inbounds nuw ptr, ptr %152, i64 %156
  store ptr %149, ptr %157, align 8, !tbaa !45
  %158 = load ptr, ptr %5, align 8, !tbaa !27
  %159 = load ptr, ptr %5, align 8, !tbaa !27
  %160 = getelementptr inbounds nuw %struct.AVFilterFormats, ptr %159, i32 0, i32 3
  %161 = load ptr, ptr %160, align 8, !tbaa !50
  %162 = load ptr, ptr %5, align 8, !tbaa !27
  %163 = getelementptr inbounds nuw %struct.AVFilterFormats, ptr %162, i32 0, i32 2
  %164 = load i32, ptr %163, align 8, !tbaa !49
  %165 = add i32 %164, 1
  store i32 %165, ptr %163, align 8, !tbaa !49
  %166 = zext i32 %164 to i64
  %167 = getelementptr inbounds nuw ptr, ptr %161, i64 %166
  %168 = load ptr, ptr %167, align 8, !tbaa !45
  store ptr %158, ptr %168, align 8, !tbaa !27
  br label %169

169:                                              ; preds = %142
  %170 = load i32, ptr %15, align 4, !tbaa !21
  %171 = add nsw i32 %170, 1
  store i32 %171, ptr %15, align 4, !tbaa !21
  br label %136, !llvm.loop !166

172:                                              ; preds = %136
  %173 = load ptr, ptr %6, align 8, !tbaa !27
  %174 = getelementptr inbounds nuw %struct.AVFilterFormats, ptr %173, i32 0, i32 3
  call void @av_freep(ptr noundef %174)
  %175 = load ptr, ptr %6, align 8, !tbaa !27
  %176 = getelementptr inbounds nuw %struct.AVFilterFormats, ptr %175, i32 0, i32 1
  call void @av_freep(ptr noundef %176)
  call void @av_freep(ptr noundef %6)
  store i32 0, ptr %12, align 4
  br label %177

177:                                              ; preds = %172, %131
  call void @llvm.lifetime.end.p0(i64 4, ptr %15) #7
  call void @llvm.lifetime.end.p0(i64 8, ptr %14) #7
  %178 = load i32, ptr %12, align 4
  switch i32 %178, label %182 [
    i32 0, label %179
  ]

179:                                              ; preds = %177
  br label %180

180:                                              ; preds = %179
  br label %181

181:                                              ; preds = %180
  store i32 0, ptr %12, align 4
  br label %182

182:                                              ; preds = %181, %177, %111, %84, %34
  call void @llvm.lifetime.end.p0(i64 4, ptr %11) #7
  call void @llvm.lifetime.end.p0(i64 4, ptr %10) #7
  call void @llvm.lifetime.end.p0(i64 4, ptr %9) #7
  call void @llvm.lifetime.end.p0(i64 4, ptr %8) #7
  %183 = load i32, ptr %12, align 4
  switch i32 %183, label %188 [
    i32 0, label %184
    i32 1, label %186
  ]

184:                                              ; preds = %182
  br label %185

185:                                              ; preds = %184
  store i32 1, ptr %4, align 4
  br label %186

186:                                              ; preds = %185, %182, %19
  %187 = load i32, ptr %4, align 4
  ret i32 %187

188:                                              ; preds = %182
  unreachable
}