; Function Attrs: nounwind uwtable
define internal fastcc range(i32 -12, 2) i32 @merge_samplerates_internal(ptr noundef %0, ptr noundef %1, i32 noundef range(i32 0, 2) %2) unnamed_addr #3 {
  %4 = alloca ptr, align 8
  store ptr %1, ptr %4, align 8, !tbaa !23
  %5 = icmp eq ptr %0, %1
  br i1 %5, label %.thread65, label %6

6:                                                ; preds = %3
  %7 = load i32, ptr %0, align 8, !tbaa !24
  %.not = icmp eq i32 %7, 0
  br i1 %.not, label %12, label %8

8:                                                ; preds = %6
  %9 = load i32, ptr %1, align 8, !tbaa !24
  %.not51 = icmp eq i32 %9, 0
  br i1 %.not51, label %.thread, label %.preheader.preheader

.preheader.preheader:                             ; preds = %8
  %10 = getelementptr inbounds nuw i8, ptr %0, i64 8
  %11 = getelementptr inbounds nuw i8, ptr %1, i64 8
  %.not56 = icmp eq i32 %2, 0
  br label %.preheader

12:                                               ; preds = %6
  %.not52 = icmp eq i32 %2, 0
  br i1 %.not52, label %13, label %.thread65

.thread:                                          ; preds = %8
  %.not5258 = icmp eq i32 %2, 0
  br i1 %.not5258, label %.thread60, label %.thread65

13:                                               ; preds = %12
  store ptr %0, ptr %4, align 8, !tbaa !23
  br label %.thread60

.preheader:                                       ; preds = %.preheader.preheader, %.loopexit
  %14 = phi i32 [ %7, %.preheader.preheader ], [ %30, %.loopexit ]
  %indvars.iv89 = phi i64 [ 0, %.preheader.preheader ], [ %indvars.iv.next90, %.loopexit ]
  %.04376 = phi i32 [ 0, %.preheader.preheader ], [ %.144, %.loopexit ]
  %15 = load i32, ptr %1, align 8, !tbaa !24
  %.not84 = icmp eq i32 %15, 0
  br i1 %.not84, label %.loopexit, label %.lr.ph

.lr.ph:                                           ; preds = %.preheader
  %16 = load ptr, ptr %10, align 8, !tbaa !29
  %17 = getelementptr inbounds nuw i32, ptr %16, i64 %indvars.iv89
  %18 = load i32, ptr %17, align 4, !tbaa !19
  %19 = load ptr, ptr %11, align 8, !tbaa !29
  %wide.trip.count = zext i32 %15 to i64
  br label %21

20:                                               ; preds = %21
  %indvars.iv.next = add nuw nsw i64 %indvars.iv, 1
  %exitcond.not = icmp eq i64 %indvars.iv.next, %wide.trip.count
  br i1 %exitcond.not, label %.loopexit, label %21, !llvm.loop !148

21:                                               ; preds = %.lr.ph, %20
  %indvars.iv = phi i64 [ 0, %.lr.ph ], [ %indvars.iv.next, %20 ]
  %22 = getelementptr inbounds nuw i32, ptr %19, i64 %indvars.iv
  %23 = load i32, ptr %22, align 4, !tbaa !19
  %24 = icmp eq i32 %18, %23
  br i1 %24, label %25, label %20

25:                                               ; preds = %21
  br i1 %.not56, label %26, label %.thread65

26:                                               ; preds = %25
  %27 = add nsw i32 %.04376, 1
  %28 = sext i32 %.04376 to i64
  %29 = getelementptr inbounds i32, ptr %16, i64 %28
  store i32 %18, ptr %29, align 4, !tbaa !19
  %.pre = load i32, ptr %0, align 8, !tbaa !24
  br label %.loopexit

.loopexit:                                        ; preds = %20, %.preheader, %26
  %30 = phi i32 [ %.pre, %26 ], [ %14, %.preheader ], [ %14, %20 ]
  %.144 = phi i32 [ %27, %26 ], [ %.04376, %.preheader ], [ %.04376, %20 ]
  %indvars.iv.next90 = add nuw nsw i64 %indvars.iv89, 1
  %31 = zext i32 %30 to i64
  %32 = icmp samesign ult i64 %indvars.iv.next90, %31
  br i1 %32, label %.preheader, label %._crit_edge, !llvm.loop !149

._crit_edge:                                      ; preds = %.loopexit
  %.not55 = icmp eq i32 %.144, 0
  br i1 %.not55, label %.thread65, label %33

33:                                               ; preds = %._crit_edge
  store i32 %.144, ptr %0, align 8, !tbaa !24
  br label %.thread60

.thread60:                                        ; preds = %.thread, %13, %33
  %34 = phi ptr [ %1, %33 ], [ %0, %13 ], [ %1, %.thread ]
  %.03863 = phi ptr [ %0, %33 ], [ %1, %13 ], [ %0, %.thread ]
  %35 = getelementptr inbounds nuw i8, ptr %.03863, i64 24
  %36 = load ptr, ptr %35, align 8, !tbaa !42
  %37 = getelementptr inbounds nuw i8, ptr %.03863, i64 16
  %38 = load i32, ptr %37, align 8, !tbaa !41
  %39 = getelementptr inbounds nuw i8, ptr %34, i64 16
  %40 = load i32, ptr %39, align 8, !tbaa !41
  %41 = add i32 %40, %38
  %42 = zext i32 %41 to i64
  %43 = tail call ptr @av_realloc_array(ptr noundef %36, i64 noundef %42, i64 noundef 8) #10
  %.not57 = icmp eq ptr %43, null
  br i1 %.not57, label %.thread65, label %44

44:                                               ; preds = %.thread60
  store ptr %43, ptr %35, align 8, !tbaa !42
  %45 = load i32, ptr %39, align 8, !tbaa !41
  %.not85 = icmp eq i32 %45, 0
  br i1 %.not85, label %._crit_edge80, label %.lr.ph79

.lr.ph79:                                         ; preds = %44
  %.promoted = load i32, ptr %37, align 8, !tbaa !41
  %.phi.trans.insert = getelementptr inbounds nuw i8, ptr %34, i64 24
  %.pre95 = load ptr, ptr %.phi.trans.insert, align 8, !tbaa !42
  br label %46

46:                                               ; preds = %.lr.ph79, %46
  %indvars.iv92 = phi i64 [ 0, %.lr.ph79 ], [ %indvars.iv.next93, %46 ]
  %47 = phi i32 [ %.promoted, %.lr.ph79 ], [ %52, %46 ]
  %48 = getelementptr inbounds nuw ptr, ptr %.pre95, i64 %indvars.iv92
  %49 = load ptr, ptr %48, align 8, !tbaa !43
  %50 = zext i32 %47 to i64
  %51 = getelementptr inbounds nuw ptr, ptr %43, i64 %50
  store ptr %49, ptr %51, align 8, !tbaa !43
  %52 = add i32 %47, 1
  store i32 %52, ptr %37, align 8, !tbaa !41
  store ptr %.03863, ptr %49, align 8, !tbaa !23
  %indvars.iv.next93 = add nuw nsw i64 %indvars.iv92, 1
  %53 = load i32, ptr %39, align 8, !tbaa !41
  %54 = zext i32 %53 to i64
  %55 = icmp samesign ult i64 %indvars.iv.next93, %54
  br i1 %55, label %46, label %._crit_edge80, !llvm.loop !150

._crit_edge80:                                    ; preds = %46, %44
  %56 = getelementptr inbounds nuw i8, ptr %34, i64 24
  tail call void @av_freep(ptr noundef nonnull %56) #10
  %57 = getelementptr inbounds nuw i8, ptr %34, i64 8
  tail call void @av_freep(ptr noundef nonnull %57) #10
  call void @av_freep(ptr noundef nonnull %4) #10
  br label %.thread65

.thread65:                                        ; preds = %25, %.thread, %.thread60, %._crit_edge, %12, %._crit_edge80, %3
  %.037 = phi i32 [ 1, %3 ], [ 1, %._crit_edge80 ], [ 1, %.thread ], [ -12, %.thread60 ], [ 0, %._crit_edge ], [ 1, %12 ], [ 1, %25 ]
  ret i32 %.037
}